target datalayout = "e-m:e-p270:32:32-p271:32:32-p272:64:64-i64:64-i128:128-f80:128-n8:16:32:64-S128"
target triple = "x86_64-unknown-linux-gnu"

module asm ".section\09\22.initcall6.init\22, \22a\22\09\09"
module asm "__initcall__kmod_selinux__780_238_sel_netport_init6:\09\09\09"
module asm ".long\09sel_netport_init - .\09"
module asm ".previous\09\09\09\09\09"

%struct.spinlock = type { %union.anon }
%union.anon = type { %struct.raw_spinlock }
%struct.raw_spinlock = type { %struct.qspinlock }
%struct.qspinlock = type { %union.anon.0 }
%union.anon.0 = type { %struct.atomic_t }
%struct.atomic_t = type { i32 }
%struct.sel_netport_bkt = type { i32, %struct.list_head }
%struct.list_head = type { ptr, ptr }

@sel_netport_lock = internal global %struct.spinlock zeroinitializer, align 4
@sel_netport_hash = internal global [256 x %struct.sel_netport_bkt] zeroinitializer, align 16
@__UNIQUE_ID___addressable_sel_netport_init781 = internal global ptr @sel_netport_init, section ".discard.addressable", align 8
@.str = private unnamed_addr constant [68 x i8] c"\014SELinux: failure in %s(), unable to determine network port label\0A\00", align 1
@__func__.sel_netport_sid_slow = private unnamed_addr constant [21 x i8] c"sel_netport_sid_slow\00", align 1
@kmalloc_caches = external dso_local local_unnamed_addr global [3 x [14 x ptr]], align 16
@selinux_enabled_boot = external dso_local local_unnamed_addr global i32, align 4
@llvm.compiler.used = appending global [1 x ptr] [ptr @__UNIQUE_ID___addressable_sel_netport_init781], section "llvm.metadata"

; Function Attrs: fn_ret_thunk_extern nounwind null_pointer_is_valid
define dso_local i32 @sel_netport_sid(i8 noundef zeroext %0, i16 noundef zeroext %1, ptr noundef %2) local_unnamed_addr #0 align 16 {
  tail call void @__rcu_read_lock() #5
  %4 = and i16 %1, 255
  %5 = zext nneg i16 %4 to i64
  %6 = getelementptr [256 x %struct.sel_netport_bkt], ptr @sel_netport_hash, i64 0, i64 %5, i32 1
  %7 = load volatile ptr, ptr %6, align 8
  %8 = icmp eq ptr %7, %6
  br i1 %8, label %23, label %9

9:                                                ; preds = %18, %3
  %10 = phi ptr [ %19, %18 ], [ %7, %3 ]
  %11 = getelementptr i8, ptr %10, i64 -4
  %12 = load i16, ptr %11, align 4
  %13 = icmp eq i16 %12, %1
  br i1 %13, label %14, label %18

14:                                               ; preds = %9
  %15 = getelementptr i8, ptr %10, i64 -2
  %16 = load i8, ptr %15, align 2
  %17 = icmp eq i8 %16, %0
  br i1 %17, label %21, label %18

18:                                               ; preds = %14, %9
  %19 = load volatile ptr, ptr %10, align 8
  %20 = icmp eq ptr %19, %6
  br i1 %20, label %23, label %9, !llvm.loop !5

21:                                               ; preds = %14
  %22 = getelementptr i8, ptr %10, i64 -8
  br label %23

23:                                               ; preds = %21, %18, %3
  %24 = phi ptr [ %22, %21 ], [ null, %3 ], [ null, %18 ]
  %25 = icmp eq ptr %24, null
  br i1 %25, label %28, label %26

26:                                               ; preds = %23
  %27 = load i32, ptr %24, align 8
  store i32 %27, ptr %2, align 4
  tail call void @__rcu_read_unlock() #5
  br label %85

28:                                               ; preds = %23
  tail call void @__rcu_read_unlock() #5
  tail call void @_raw_spin_lock_bh(ptr noundef nonnull @sel_netport_lock) #5
  %29 = load volatile ptr, ptr %6, align 8
  %30 = icmp eq ptr %29, %6
  br i1 %30, label %45, label %31

31:                                               ; preds = %40, %28
  %32 = phi ptr [ %41, %40 ], [ %29, %28 ]
  %33 = getelementptr i8, ptr %32, i64 -4
  %34 = load i16, ptr %33, align 4
  %35 = icmp eq i16 %34, %1
  br i1 %35, label %36, label %40

36:                                               ; preds = %31
  %37 = getelementptr i8, ptr %32, i64 -2
  %38 = load i8, ptr %37, align 2
  %39 = icmp eq i8 %38, %0
  br i1 %39, label %43, label %40

40:                                               ; preds = %36, %31
  %41 = load volatile ptr, ptr %32, align 8
  %42 = icmp eq ptr %41, %6
  br i1 %42, label %45, label %31, !llvm.loop !5

43:                                               ; preds = %36
  %44 = getelementptr i8, ptr %32, i64 -8
  br label %45

45:                                               ; preds = %43, %40, %28
  %46 = phi ptr [ %44, %43 ], [ null, %28 ], [ null, %40 ]
  %47 = icmp eq ptr %46, null
  br i1 %47, label %50, label %48

48:                                               ; preds = %45
  %49 = load i32, ptr %46, align 8
  store i32 %49, ptr %2, align 4
  tail call void @_raw_spin_unlock_bh(ptr noundef nonnull @sel_netport_lock) #5
  br label %85

50:                                               ; preds = %45
  %51 = tail call i32 @security_port_sid(i8 noundef zeroext %0, i16 noundef zeroext %1, ptr noundef %2) #5
  %52 = icmp eq i32 %51, 0
  br i1 %52, label %53, label %83

53:                                               ; preds = %50
  %54 = load ptr, ptr getelementptr inbounds ([3 x [14 x ptr]], ptr @kmalloc_caches, i64 0, i64 0, i64 6), align 16
  %55 = tail call noalias noundef align 8 dereferenceable_or_null(40) ptr @kmalloc_trace(ptr noundef %54, i32 noundef 2336, i64 noundef 40) #6
  %56 = icmp eq ptr %55, null
  br i1 %56, label %82, label %57

57:                                               ; preds = %53
  %58 = getelementptr inbounds i8, ptr %55, i64 4
  store i16 %1, ptr %58, align 4
  %59 = getelementptr inbounds i8, ptr %55, i64 6
  store i8 %0, ptr %59, align 2
  %60 = load i32, ptr %2, align 4
  store i32 %60, ptr %55, align 8
  %61 = getelementptr inbounds i8, ptr %55, i64 8
  %62 = getelementptr [256 x %struct.sel_netport_bkt], ptr @sel_netport_hash, i64 0, i64 %5
  %63 = getelementptr inbounds i8, ptr %62, i64 8
  %64 = load ptr, ptr %63, align 8
  store ptr %64, ptr %61, align 8
  %65 = getelementptr inbounds i8, ptr %55, i64 16
  store ptr %63, ptr %65, align 8
  tail call void asm sideeffect "", "~{memory},~{dirflag},~{fpsr},~{flags}"() #5, !srcloc !8
  store volatile ptr %61, ptr %63, align 8
  %66 = getelementptr inbounds i8, ptr %64, i64 8
  store ptr %61, ptr %66, align 8
  %67 = load i32, ptr %62, align 8
  %68 = icmp eq i32 %67, 16
  br i1 %68, label %69, label %80

69:                                               ; preds = %57
  %70 = getelementptr inbounds i8, ptr %62, i64 16
  %71 = load ptr, ptr %70, align 8
  %72 = getelementptr i8, ptr %71, i64 -8
  %73 = getelementptr inbounds i8, ptr %71, i64 8
  %74 = load ptr, ptr %73, align 8
  %75 = load ptr, ptr %71, align 8
  %76 = getelementptr inbounds i8, ptr %75, i64 8
  store ptr %74, ptr %76, align 8
  store volatile ptr %75, ptr %74, align 8
  store ptr inttoptr (i64 -2401263026318606046 to ptr), ptr %73, align 8
  %77 = icmp eq ptr %72, null
  br i1 %77, label %82, label %78

78:                                               ; preds = %69
  %79 = getelementptr i8, ptr %71, i64 16
  tail call void @kvfree_call_rcu(ptr noundef %79, ptr noundef nonnull %72) #5
  br label %82

80:                                               ; preds = %57
  %81 = add i32 %67, 1
  store i32 %81, ptr %62, align 8
  br label %82

82:                                               ; preds = %80, %78, %69, %53
  tail call void @_raw_spin_unlock_bh(ptr noundef nonnull @sel_netport_lock) #5
  br label %85

83:                                               ; preds = %50
  tail call void @_raw_spin_unlock_bh(ptr noundef nonnull @sel_netport_lock) #5
  %84 = tail call i32 (ptr, ...) @_printk(ptr noundef nonnull @.str, ptr noundef nonnull @__func__.sel_netport_sid_slow) #7
  br label %85

85:                                               ; preds = %83, %82, %48, %26
  %86 = phi i32 [ 0, %26 ], [ 0, %48 ], [ %51, %83 ], [ %51, %82 ]
  ret i32 %86
}

; Function Attrs: fn_ret_thunk_extern nounwind null_pointer_is_valid
define dso_local void @sel_netport_flush() local_unnamed_addr #0 align 16 {
  tail call void @_raw_spin_lock_bh(ptr noundef nonnull @sel_netport_lock) #5
  br label %1

1:                                                ; preds = %21, %0
  %2 = phi i64 [ 0, %0 ], [ %22, %21 ]
  %3 = getelementptr [256 x %struct.sel_netport_bkt], ptr @sel_netport_hash, i64 0, i64 %2
  %4 = getelementptr inbounds i8, ptr %3, i64 8
  %5 = load ptr, ptr %4, align 8
  %6 = getelementptr i8, ptr %5, i64 -8
  %7 = icmp eq ptr %6, %3
  br i1 %7, label %21, label %8

8:                                                ; preds = %18, %1
  %9 = phi ptr [ %19, %18 ], [ %6, %1 ]
  %10 = phi ptr [ %11, %18 ], [ %5, %1 ]
  %11 = load ptr, ptr %10, align 8
  %12 = getelementptr inbounds i8, ptr %10, i64 8
  %13 = load ptr, ptr %12, align 8
  %14 = getelementptr inbounds i8, ptr %11, i64 8
  store ptr %13, ptr %14, align 8
  store volatile ptr %11, ptr %13, align 8
  store ptr inttoptr (i64 -2401263026318606046 to ptr), ptr %12, align 8
  %15 = icmp eq ptr %9, null
  br i1 %15, label %18, label %16

16:                                               ; preds = %8
  %17 = getelementptr i8, ptr %10, i64 16
  tail call void @kvfree_call_rcu(ptr noundef %17, ptr noundef nonnull %9) #5
  br label %18

18:                                               ; preds = %16, %8
  %19 = getelementptr i8, ptr %11, i64 -8
  %20 = icmp eq ptr %19, %3
  br i1 %20, label %21, label %8, !llvm.loop !9

21:                                               ; preds = %18, %1
  store i32 0, ptr %3, align 8
  %22 = add nuw nsw i64 %2, 1
  %23 = icmp eq i64 %22, 256
  br i1 %23, label %24, label %1, !llvm.loop !10

24:                                               ; preds = %21
  tail call void @_raw_spin_unlock_bh(ptr noundef nonnull @sel_netport_lock) #5
  ret void
}

; Function Attrs: null_pointer_is_valid
declare dso_local void @kvfree_call_rcu(ptr noundef, ptr noundef) local_unnamed_addr #1

; Function Attrs: cold fn_ret_thunk_extern nofree norecurse nounwind null_pointer_is_valid optsize memory(readwrite, argmem: none)
define internal noundef i32 @sel_netport_init() #2 section ".init.text" align 16 {
  %1 = load i32, ptr @selinux_enabled_boot, align 4
  %2 = icmp eq i32 %1, 0
  br i1 %2, label %10, label %3

3:                                                ; preds = %3, %0
  %4 = phi i64 [ %8, %3 ], [ 0, %0 ]
  %5 = getelementptr [256 x %struct.sel_netport_bkt], ptr @sel_netport_hash, i64 0, i64 %4
  %6 = getelementptr inbounds i8, ptr %5, i64 8
  store volatile ptr %6, ptr %6, align 8
  %7 = getelementptr inbounds i8, ptr %5, i64 16
  store volatile ptr %6, ptr %7, align 8
  store i32 0, ptr %5, align 8
  %8 = add nuw nsw i64 %4, 1
  %9 = icmp eq i64 %8, 256
  br i1 %9, label %10, label %3, !llvm.loop !11

10:                                               ; preds = %3, %0
  ret i32 0
}

; Function Attrs: null_pointer_is_valid
declare dso_local void @__rcu_read_lock() local_unnamed_addr #1

; Function Attrs: null_pointer_is_valid
declare dso_local void @__rcu_read_unlock() local_unnamed_addr #1

; Function Attrs: null_pointer_is_valid
declare dso_local i32 @security_port_sid(i8 noundef zeroext, i16 noundef zeroext, ptr noundef) local_unnamed_addr #1

; Function Attrs: cold null_pointer_is_valid
declare dso_local i32 @_printk(ptr noundef, ...) local_unnamed_addr #3

; Function Attrs: null_pointer_is_valid allocsize(2)
declare dso_local noalias ptr @kmalloc_trace(ptr noundef, i32 noundef, i64 noundef) local_unnamed_addr #4

; Function Attrs: null_pointer_is_valid
declare dso_local void @_raw_spin_lock_bh(ptr noundef) local_unnamed_addr #1 section ".spinlock.text"

; Function Attrs: null_pointer_is_valid
declare dso_local void @_raw_spin_unlock_bh(ptr noundef) local_unnamed_addr #1 section ".spinlock.text"


!llvm.module.flags = !{!0, !1, !2, !3, !4}

!0 = !{i32 1, !"wchar_size", i32 2}
!1 = !{i32 8, !"cf-protection-branch", i32 1}
!2 = !{i32 4, !"function_return_thunk_extern", i32 1}
!3 = !{i32 4, !"indirect_branch_cs_prefix", i32 1}
!4 = !{i32 4, !"SkipRaxSetup", i32 1}
!5 = distinct !{!5, !6, !7}
!6 = !{!"llvm.loop.mustprogress"}
!7 = !{!"llvm.loop.unroll.disable"}
!8 = !{i64 2151910111}
!9 = distinct !{!9, !6, !7}
!10 = distinct !{!10, !6, !7}
!11 = distinct !{!11, !6, !7}
